target datalayout = "e-m:e-p270:32:32-p271:32:32-p272:64:64-i64:64-i128:128-f80:128-n8:16:32:64-S128"
target triple = "x86_64-unknown-linux-gnu"

; Function Attrs: mustprogress uwtable
define noundef i32 @_ZNK6icu_7525EthiopicAmeteAlemCalendar14handleGetLimitE19UCalendarDateFieldsNS_8Calendar10ELimitTypeE(ptr noundef nonnull align 8 dereferenceable(618) %this, i32 noundef %field, i32 noundef %limitType) unnamed_addr #1 align 2 {
entry:
  %retval = alloca i32, align 4
  %this.addr = alloca ptr, align 8
  %field.addr = alloca i32, align 4
  %limitType.addr = alloca i32, align 4
  store ptr %this, ptr %this.addr, align 8
  store i32 %field, ptr %field.addr, align 4
  store i32 %limitType, ptr %limitType.addr, align 4
  %this1 = load ptr, ptr %this.addr, align 8
  %0 = load i32, ptr %field.addr, align 4
  %cmp = icmp eq i32 %0, 0
  br i1 %cmp, label %if.then, label %if.end

if.then:                                          ; preds = %entry
  store i32 0, ptr %retval, align 4
  br label %return

if.end:                                           ; preds = %entry
  %1 = load i32, ptr %field.addr, align 4
  %2 = load i32, ptr %limitType.addr, align 4
  %call = call noundef i32 @_ZNK6icu_7510CECalendar14handleGetLimitE19UCalendarDateFieldsNS_8Calendar10ELimitTypeE(ptr noundef nonnull align 8 dereferenceable(618) %this1, i32 noundef %1, i32 noundef %2)
  store i32 %call, ptr %retval, align 4
  br label %return

return:                                           ; preds = %if.end, %if.then
  %3 = load i32, ptr %retval, align 4
  ret i32 %3
}