; Function Attrs: mustprogress uwtable
define noundef i32 @_ZNK6icu_7525EthiopicAmeteAlemCalendar14handleGetLimitE19UCalendarDateFieldsNS_8Calendar10ELimitTypeE(ptr noundef nonnull align 8 dereferenceable(618) %this, i32 noundef %field, i32 noundef %limitType) unnamed_addr #1 align 2 {
entry:
  %cmp = icmp eq i32 %field, 0
  br i1 %cmp, label %return, label %if.end

if.end:                                           ; preds = %entry
  %call = tail call noundef i32 @_ZNK6icu_7510CECalendar14handleGetLimitE19UCalendarDateFieldsNS_8Calendar10ELimitTypeE(ptr noundef nonnull align 8 dereferenceable(618) %this, i32 noundef %field, i32 noundef %limitType)
  br label %return

return:                                           ; preds = %entry, %if.end
  %retval.0 = phi i32 [ %call, %if.end ], [ 0, %entry ]
  ret i32 %retval.0
}